target datalayout = "e-m:e-p270:32:32-p271:32:32-p272:64:64-i64:64-i128:128-f80:128-n8:16:32:64-S128"
target triple = "x86_64-unknown-linux-gnu"

%"class.std::__cxx11::basic_string" = type { %"struct.std::__cxx11::basic_string<char>::_Alloc_hider", i64, %union.anon }
%"struct.std::__cxx11::basic_string<char>::_Alloc_hider" = type { ptr }
%union.anon = type { i64, [8 x i8] }
%"class.Imf_3_2::TiledRgbaInputFile" = type { ptr, ptr, ptr, %"class.std::__cxx11::basic_string" }

; Function Attrs: mustprogress uwtable
define void @_ZN7Imf_3_218TiledRgbaInputFile9readTilesEiiiiii(ptr noundef nonnull align 8 dereferenceable(56) %this, i32 noundef %dxMin, i32 noundef %dxMax, i32 noundef %dyMin, i32 noundef %dyMax, i32 noundef %lx, i32 noundef %ly) #4 align 2 {
entry:
  %this.addr = alloca ptr, align 8
  %dxMin.addr = alloca i32, align 4
  %dxMax.addr = alloca i32, align 4
  %dyMin.addr = alloca i32, align 4
  %dyMax.addr = alloca i32, align 4
  %lx.addr = alloca i32, align 4
  %ly.addr = alloca i32, align 4
  %dy = alloca i32, align 4
  %dx = alloca i32, align 4
  store ptr %this, ptr %this.addr, align 8
  store i32 %dxMin, ptr %dxMin.addr, align 4
  store i32 %dxMax, ptr %dxMax.addr, align 4
  store i32 %dyMin, ptr %dyMin.addr, align 4
  store i32 %dyMax, ptr %dyMax.addr, align 4
  store i32 %lx, ptr %lx.addr, align 4
  store i32 %ly, ptr %ly.addr, align 4
  %this1 = load ptr, ptr %this.addr, align 8
  %_fromYa = getelementptr inbounds %"class.Imf_3_2::TiledRgbaInputFile", ptr %this1, i32 0, i32 2
  %0 = load ptr, ptr %_fromYa, align 8
  %tobool = icmp ne ptr %0, null
  br i1 %tobool, label %if.then, label %if.else

if.then:                                          ; preds = %entry
  %1 = load i32, ptr %dyMin.addr, align 4
  store i32 %1, ptr %dy, align 4
  br label %for.cond

for.cond:                                         ; preds = %for.inc6, %if.then
  %2 = load i32, ptr %dy, align 4
  %3 = load i32, ptr %dyMax.addr, align 4
  %cmp = icmp sle i32 %2, %3
  br i1 %cmp, label %for.body, label %for.end8

for.body:                                         ; preds = %for.cond
  %4 = load i32, ptr %dxMin.addr, align 4
  store i32 %4, ptr %dx, align 4
  br label %for.cond2

for.cond2:                                        ; preds = %for.inc, %for.body
  %5 = load i32, ptr %dx, align 4
  %6 = load i32, ptr %dxMax.addr, align 4
  %cmp3 = icmp sle i32 %5, %6
  br i1 %cmp3, label %for.body4, label %for.end

for.body4:                                        ; preds = %for.cond2
  %_fromYa5 = getelementptr inbounds %"class.Imf_3_2::TiledRgbaInputFile", ptr %this1, i32 0, i32 2
  %7 = load ptr, ptr %_fromYa5, align 8
  %8 = load i32, ptr %dx, align 4
  %9 = load i32, ptr %dy, align 4
  %10 = load i32, ptr %lx.addr, align 4
  %11 = load i32, ptr %ly.addr, align 4
  call void @_ZN7Imf_3_218TiledRgbaInputFile6FromYa8readTileEiiii(ptr noundef nonnull align 8 dereferenceable(80) %7, i32 noundef %8, i32 noundef %9, i32 noundef %10, i32 noundef %11)
  br label %for.inc

for.inc:                                          ; preds = %for.body4
  %12 = load i32, ptr %dx, align 4
  %inc = add nsw i32 %12, 1
  store i32 %inc, ptr %dx, align 4
  br label %for.cond2, !llvm.loop !12

for.end:                                          ; preds = %for.cond2
  br label %for.inc6

for.inc6:                                         ; preds = %for.end
  %13 = load i32, ptr %dy, align 4
  %inc7 = add nsw i32 %13, 1
  store i32 %inc7, ptr %dy, align 4
  br label %for.cond, !llvm.loop !13

for.end8:                                         ; preds = %for.cond
  br label %if.end

if.else:                                          ; preds = %entry
  %_inputFile = getelementptr inbounds %"class.Imf_3_2::TiledRgbaInputFile", ptr %this1, i32 0, i32 1
  %14 = load ptr, ptr %_inputFile, align 8
  %15 = load i32, ptr %dxMin.addr, align 4
  %16 = load i32, ptr %dxMax.addr, align 4
  %17 = load i32, ptr %dyMin.addr, align 4
  %18 = load i32, ptr %dyMax.addr, align 4
  %19 = load i32, ptr %lx.addr, align 4
  %20 = load i32, ptr %ly.addr, align 4
  call void @_ZN7Imf_3_214TiledInputFile9readTilesEiiiiii(ptr noundef nonnull align 8 dereferenceable(16) %14, i32 noundef %15, i32 noundef %16, i32 noundef %17, i32 noundef %18, i32 noundef %19, i32 noundef %20)
  br label %if.end

if.end:                                           ; preds = %if.else, %for.end8
  ret void
}